; ModuleID = '10/228.c'
source_filename = "10/228.c"
target datalayout = "e-m:e-p270:32:32-p271:32:32-p272:64:64-i64:64-f80:128-n8:16:32:64-S128"
target triple = "x86_64-pc-linux-gnu"

@i = common dso_local global i32 0, align 4
@count = common dso_local global [30 x i32] zeroinitializer, align 16
@.str = private unnamed_addr constant [3 x i8] c"%d\00", align 1
@n = common dso_local global i32 0, align 4
@hgt = common dso_local global [30 x i32] zeroinitializer, align 16
@temp = common dso_local global i32 0, align 4
@j = common dso_local global i32 0, align 4
@max = common dso_local global i32 0, align 4
@.str.1 = private unnamed_addr constant [4 x i8] c"%d\0A\00", align 1

; Function Attrs: noinline nounwind uwtable
define dso_local void @main() #0 {
  store i32 1, i32* @i, align 4
  br label %1

1:                                                ; preds = %8, %0
  %2 = load i32, i32* @i, align 4
  %3 = icmp sle i32 %2, 25
  br i1 %3, label %4, label %11

4:                                                ; preds = %1
  %5 = load i32, i32* @i, align 4
  %6 = sext i32 %5 to i64
  %7 = getelementptr inbounds [30 x i32], [30 x i32]* @count, i64 0, i64 %6
  store i32 0, i32* %7, align 4
  br label %8

8:                                                ; preds = %4
  %9 = load i32, i32* @i, align 4
  %10 = add nsw i32 %9, 1
  store i32 %10, i32* @i, align 4
  br label %1

11:                                               ; preds = %1
  %12 = call i32 (i8*, ...) @__isoc99_scanf(i8* getelementptr inbounds ([3 x i8], [3 x i8]* @.str, i64 0, i64 0), i32* @n)
  store i32 1, i32* @i, align 4
  br label %13

13:                                               ; preds = %22, %11
  %14 = load i32, i32* @i, align 4
  %15 = load i32, i32* @n, align 4
  %16 = icmp sle i32 %14, %15
  br i1 %16, label %17, label %25

17:                                               ; preds = %13
  %18 = load i32, i32* @i, align 4
  %19 = sext i32 %18 to i64
  %20 = getelementptr inbounds [30 x i32], [30 x i32]* @hgt, i64 0, i64 %19
  %21 = call i32 (i8*, ...) @__isoc99_scanf(i8* getelementptr inbounds ([3 x i8], [3 x i8]* @.str, i64 0, i64 0), i32* %20)
  store i32 1, i32* getelementptr inbounds ([30 x i32], [30 x i32]* @count, i64 0, i64 1), align 4
  br label %22

22:                                               ; preds = %17
  %23 = load i32, i32* @i, align 4
  %24 = add nsw i32 %23, 1
  store i32 %24, i32* @i, align 4
  br label %13

25:                                               ; preds = %13
  store i32 2, i32* @i, align 4
  br label %26

26:                                               ; preds = %68, %25
  %27 = load i32, i32* @i, align 4
  %28 = load i32, i32* @n, align 4
  %29 = icmp sle i32 %27, %28
  br i1 %29, label %30, label %71

30:                                               ; preds = %26
  store i32 0, i32* @temp, align 4
  store i32 1, i32* @j, align 4
  br label %31

31:                                               ; preds = %59, %30
  %32 = load i32, i32* @j, align 4
  %33 = load i32, i32* @i, align 4
  %34 = icmp slt i32 %32, %33
  br i1 %34, label %35, label %62

35:                                               ; preds = %31
  %36 = load i32, i32* @i, align 4
  %37 = sext i32 %36 to i64
  %38 = getelementptr inbounds [30 x i32], [30 x i32]* @hgt, i64 0, i64 %37
  %39 = load i32, i32* %38, align 4
  %40 = load i32, i32* @j, align 4
  %41 = sext i32 %40 to i64
  %42 = getelementptr inbounds [30 x i32], [30 x i32]* @hgt, i64 0, i64 %41
  %43 = load i32, i32* %42, align 4
  %44 = icmp sle i32 %39, %43
  br i1 %44, label %45, label %58

45:                                               ; preds = %35
  %46 = load i32, i32* @temp, align 4
  %47 = load i32, i32* @j, align 4
  %48 = sext i32 %47 to i64
  %49 = getelementptr inbounds [30 x i32], [30 x i32]* @count, i64 0, i64 %48
  %50 = load i32, i32* %49, align 4
  %51 = icmp slt i32 %46, %50
  br i1 %51, label %52, label %57

52:                                               ; preds = %45
  %53 = load i32, i32* @j, align 4
  %54 = sext i32 %53 to i64
  %55 = getelementptr inbounds [30 x i32], [30 x i32]* @count, i64 0, i64 %54
  %56 = load i32, i32* %55, align 4
  store i32 %56, i32* @temp, align 4
  br label %57

57:                                               ; preds = %52, %45
  br label %58

58:                                               ; preds = %57, %35
  br label %59

59:                                               ; preds = %58
  %60 = load i32, i32* @j, align 4
  %61 = add nsw i32 %60, 1
  store i32 %61, i32* @j, align 4
  br label %31

62:                                               ; preds = %31
  %63 = load i32, i32* @temp, align 4
  %64 = add nsw i32 %63, 1
  %65 = load i32, i32* @i, align 4
  %66 = sext i32 %65 to i64
  %67 = getelementptr inbounds [30 x i32], [30 x i32]* @count, i64 0, i64 %66
  store i32 %64, i32* %67, align 4
  br label %68

68:                                               ; preds = %62
  %69 = load i32, i32* @i, align 4
  %70 = add nsw i32 %69, 1
  store i32 %70, i32* @i, align 4
  br label %26

71:                                               ; preds = %26
  store i32 0, i32* @max, align 4
  store i32 1, i32* @i, align 4
  br label %72

72:                                               ; preds = %89, %71
  %73 = load i32, i32* @i, align 4
  %74 = load i32, i32* @n, align 4
  %75 = icmp sle i32 %73, %74
  br i1 %75, label %76, label %92

76:                                               ; preds = %72
  %77 = load i32, i32* @max, align 4
  %78 = load i32, i32* @i, align 4
  %79 = sext i32 %78 to i64
  %80 = getelementptr inbounds [30 x i32], [30 x i32]* @count, i64 0, i64 %79
  %81 = load i32, i32* %80, align 4
  %82 = icmp slt i32 %77, %81
  br i1 %82, label %83, label %88

83:                                               ; preds = %76
  %84 = load i32, i32* @i, align 4
  %85 = sext i32 %84 to i64
  %86 = getelementptr inbounds [30 x i32], [30 x i32]* @count, i64 0, i64 %85
  %87 = load i32, i32* %86, align 4
  store i32 %87, i32* @max, align 4
  br label %88

88:                                               ; preds = %83, %76
  br label %89

89:                                               ; preds = %88
  %90 = load i32, i32* @i, align 4
  %91 = add nsw i32 %90, 1
  store i32 %91, i32* @i, align 4
  br label %72

92:                                               ; preds = %72
  %93 = load i32, i32* @max, align 4
  %94 = call i32 (i8*, ...) @printf(i8* getelementptr inbounds ([4 x i8], [4 x i8]* @.str.1, i64 0, i64 0), i32 %93)
  ret void
}

declare dso_local i32 @__isoc99_scanf(i8*, ...) #1

declare dso_local i32 @printf(i8*, ...) #1


!llvm.module.flags = !{!0}
!llvm.ident = !{!1}

!0 = !{i32 1, !"wchar_size", i32 4}
!1 = !{!"clang version 10.0.0-4ubuntu1 "}
